target datalayout = "e-m:e-p270:32:32-p271:32:32-p272:64:64-i64:64-i128:128-f80:128-n8:16:32:64-S128"
target triple = "x86_64-pc-linux-gnu"

%"struct.std::atomic.10" = type { %"struct.std::__atomic_base.11" }
%"struct.std::__atomic_base.11" = type { i8 }
%"class.pxrInternal_v0_24__pxrReserved__::TfDiagnosticMgr" = type <{ ptr, %"class.pxrInternal_v0_24__pxrReserved__::TfWeakBase", %"class.tbb::detail::d1::enumerable_thread_specific", %"class.std::vector", %"class.tbb::detail::d1::spin_rw_mutex", %"struct.std::atomic.4", %"class.tbb::detail::d1::enumerable_thread_specific.14", %"class.tbb::detail::d1::enumerable_thread_specific.23", %"class.tbb::detail::d1::enumerable_thread_specific.32", i8, [7 x i8] }>
%"class.pxrInternal_v0_24__pxrReserved__::TfWeakBase" = type { %"struct.std::atomic.0" }
%"struct.std::atomic.0" = type { %"struct.std::__atomic_base.1" }
%"struct.std::__atomic_base.1" = type { ptr }
%"class.tbb::detail::d1::enumerable_thread_specific" = type { %"class.tbb::detail::d1::ets_base", ptr, %"class.tbb::detail::d1::concurrent_vector" }
%"class.tbb::detail::d1::ets_base" = type { ptr, %"struct.std::atomic.2", %"struct.std::atomic.4" }
%"struct.std::atomic.2" = type { %"struct.std::__atomic_base.3" }
%"struct.std::__atomic_base.3" = type { ptr }
%"class.tbb::detail::d1::concurrent_vector" = type { %"class.tbb::detail::d1::segment_table.base", [7 x i8] }
%"class.tbb::detail::d1::segment_table.base" = type <{ ptr, [8 x i8], %"struct.std::atomic.6", [3 x %"struct.std::atomic.8"], %"struct.std::atomic.4", %"struct.std::atomic.4", %"struct.std::atomic.10" }>
%"struct.std::atomic.6" = type { %"struct.std::__atomic_base.7" }
%"struct.std::__atomic_base.7" = type { ptr }
%"struct.std::atomic.8" = type { %"struct.std::__atomic_base.9" }
%"struct.std::__atomic_base.9" = type { ptr }
%"class.std::vector" = type { %"struct.std::_Vector_base" }
%"struct.std::_Vector_base" = type { %"struct.std::_Vector_base<pxrInternal_v0_24__pxrReserved__::TfDiagnosticMgr::Delegate *, std::allocator<pxrInternal_v0_24__pxrReserved__::TfDiagnosticMgr::Delegate *>>::_Vector_impl" }
%"struct.std::_Vector_base<pxrInternal_v0_24__pxrReserved__::TfDiagnosticMgr::Delegate *, std::allocator<pxrInternal_v0_24__pxrReserved__::TfDiagnosticMgr::Delegate *>>::_Vector_impl" = type { %"struct.std::_Vector_base<pxrInternal_v0_24__pxrReserved__::TfDiagnosticMgr::Delegate *, std::allocator<pxrInternal_v0_24__pxrReserved__::TfDiagnosticMgr::Delegate *>>::_Vector_impl_data" }
%"struct.std::_Vector_base<pxrInternal_v0_24__pxrReserved__::TfDiagnosticMgr::Delegate *, std::allocator<pxrInternal_v0_24__pxrReserved__::TfDiagnosticMgr::Delegate *>>::_Vector_impl_data" = type { ptr, ptr, ptr }
%"class.tbb::detail::d1::spin_rw_mutex" = type { %"struct.std::atomic.12" }
%"struct.std::atomic.12" = type { %"struct.std::__atomic_base.13" }
%"struct.std::__atomic_base.13" = type { i64 }
%"struct.std::atomic.4" = type { %"struct.std::__atomic_base.5" }
%"struct.std::__atomic_base.5" = type { i64 }
%"class.tbb::detail::d1::enumerable_thread_specific.14" = type { %"class.tbb::detail::d1::ets_base", ptr, %"class.tbb::detail::d1::concurrent_vector.15" }
%"class.tbb::detail::d1::concurrent_vector.15" = type { %"class.tbb::detail::d1::segment_table.base.21", [7 x i8] }
%"class.tbb::detail::d1::segment_table.base.21" = type <{ ptr, [8 x i8], %"struct.std::atomic.17", [3 x %"struct.std::atomic.19"], %"struct.std::atomic.4", %"struct.std::atomic.4", %"struct.std::atomic.10" }>
%"struct.std::atomic.17" = type { %"struct.std::__atomic_base.18" }
%"struct.std::__atomic_base.18" = type { ptr }
%"struct.std::atomic.19" = type { %"struct.std::__atomic_base.20" }
%"struct.std::__atomic_base.20" = type { ptr }
%"class.tbb::detail::d1::enumerable_thread_specific.23" = type { %"class.tbb::detail::d1::ets_base", ptr, %"class.tbb::detail::d1::concurrent_vector.24" }
%"class.tbb::detail::d1::concurrent_vector.24" = type { %"class.tbb::detail::d1::segment_table.base.30", [7 x i8] }
%"class.tbb::detail::d1::segment_table.base.30" = type <{ ptr, [8 x i8], %"struct.std::atomic.26", [3 x %"struct.std::atomic.28"], %"struct.std::atomic.4", %"struct.std::atomic.4", %"struct.std::atomic.10" }>
%"struct.std::atomic.26" = type { %"struct.std::__atomic_base.27" }
%"struct.std::__atomic_base.27" = type { ptr }
%"struct.std::atomic.28" = type { %"struct.std::__atomic_base.29" }
%"struct.std::__atomic_base.29" = type { ptr }
%"class.tbb::detail::d1::enumerable_thread_specific.32" = type { %"class.tbb::detail::d1::ets_base.base", ptr, %"class.tbb::detail::d1::concurrent_vector.34" }
%"class.tbb::detail::d1::ets_base.base" = type <{ %"class.tbb::detail::d1::ets_base", i32 }>
%"class.tbb::detail::d1::concurrent_vector.34" = type { %"class.tbb::detail::d1::segment_table.base.40", [7 x i8] }
%"class.tbb::detail::d1::segment_table.base.40" = type <{ ptr, [8 x i8], %"struct.std::atomic.36", [3 x %"struct.std::atomic.38"], %"struct.std::atomic.4", %"struct.std::atomic.4", %"struct.std::atomic.10" }>
%"struct.std::atomic.36" = type { %"struct.std::__atomic_base.37" }
%"struct.std::__atomic_base.37" = type { ptr }
%"struct.std::atomic.38" = type { %"struct.std::__atomic_base.39" }
%"struct.std::__atomic_base.39" = type { ptr }
%"struct.std::_List_iterator" = type { ptr }
%"class.std::__cxx11::_List_base" = type { %"struct.std::__cxx11::_List_base<pxrInternal_v0_24__pxrReserved__::TfError, std::allocator<pxrInternal_v0_24__pxrReserved__::TfError>>::_List_impl" }
%"struct.std::__cxx11::_List_base<pxrInternal_v0_24__pxrReserved__::TfError, std::allocator<pxrInternal_v0_24__pxrReserved__::TfError>>::_List_impl" = type { %"struct.std::__detail::_List_node_header" }
%"struct.std::__detail::_List_node_header" = type { %"struct.std::__detail::_List_node_base", i64 }
%"struct.std::__detail::_List_node_base" = type { ptr, ptr }

; Function Attrs: mustprogress nounwind uwtable
define linkonce_odr void @_ZNSt14_List_iteratorIN32pxrInternal_v0_24__pxrReserved__7TfErrorEEC2EPNSt8__detail15_List_node_baseE(ptr noundef nonnull align 8 dereferenceable(8) %0, ptr noundef %1) unnamed_addr #1 comdat align 2 {
  %3 = alloca ptr, align 8
  %4 = alloca ptr, align 8
  store ptr %0, ptr %3, align 8
  store ptr %1, ptr %4, align 8
  %5 = load ptr, ptr %3, align 8
  %6 = getelementptr inbounds nuw %"struct.std::_List_iterator", ptr %5, i32 0, i32 0
  %7 = load ptr, ptr %4, align 8
  store ptr %7, ptr %6, align 8
  ret void
}

; Function Attrs: mustprogress uwtable
define linkonce_odr noundef nonnull align 8 dereferenceable(24) ptr @_ZN3tbb6detail2d126enumerable_thread_specificINSt7__cxx114listIN32pxrInternal_v0_24__pxrReserved__7TfErrorESaIS6_EEENS1_23cache_aligned_allocatorIS8_EELNS1_18ets_key_usage_typeE1EE5localERb(ptr noundef nonnull align 8 dereferenceable(104) %0, ptr noundef nonnull align 1 dereferenceable(1) %1) #0 comdat align 2 {
  %3 = alloca ptr, align 8
  %4 = alloca ptr, align 8
  %5 = alloca ptr, align 8
  store ptr %0, ptr %3, align 8
  store ptr %1, ptr %4, align 8
  %6 = load ptr, ptr %3, align 8
  %7 = load ptr, ptr %4, align 8
  %8 = call noundef ptr @_ZN3tbb6detail2d18ets_baseILNS1_18ets_key_usage_typeE1EE12table_lookupERb(ptr noundef nonnull align 8 dereferenceable(24) %6, ptr noundef nonnull align 1 dereferenceable(1) %7)
  store ptr %8, ptr %5, align 8
  %9 = load ptr, ptr %5, align 8
  ret ptr %9
}

; Function Attrs: mustprogress nounwind uwtable
define linkonce_odr ptr @_ZNSt7__cxx114listIN32pxrInternal_v0_24__pxrReserved__7TfErrorESaIS2_EE3endEv(ptr noundef nonnull align 8 dereferenceable(24) %0) #1 comdat align 2 {
  %2 = alloca %"struct.std::_List_iterator", align 8
  %3 = alloca ptr, align 8
  store ptr %0, ptr %3, align 8
  %4 = load ptr, ptr %3, align 8
  %5 = getelementptr inbounds nuw %"class.std::__cxx11::_List_base", ptr %4, i32 0, i32 0
  %6 = getelementptr inbounds nuw %"struct.std::__cxx11::_List_base<pxrInternal_v0_24__pxrReserved__::TfError, std::allocator<pxrInternal_v0_24__pxrReserved__::TfError>>::_List_impl", ptr %5, i32 0, i32 0
  call void @_ZNSt14_List_iteratorIN32pxrInternal_v0_24__pxrReserved__7TfErrorEEC2EPNSt8__detail15_List_node_baseE(ptr noundef nonnull align 8 dereferenceable(8) %2, ptr noundef %6) #13
  %7 = getelementptr inbounds nuw %"struct.std::_List_iterator", ptr %2, i32 0, i32 0
  %8 = load ptr, ptr %7, align 8
  ret ptr %8
}

; Function Attrs: mustprogress uwtable
define linkonce_odr noundef nonnull align 8 dereferenceable(24) ptr @_ZN3tbb6detail2d126enumerable_thread_specificINSt7__cxx114listIN32pxrInternal_v0_24__pxrReserved__7TfErrorESaIS6_EEENS1_23cache_aligned_allocatorIS8_EELNS1_18ets_key_usage_typeE1EE5localEv(ptr noundef nonnull align 8 dereferenceable(104) %0) #0 comdat align 2 {
  %2 = alloca ptr, align 8
  %3 = alloca i8, align 1
  store ptr %0, ptr %2, align 8
  %4 = load ptr, ptr %2, align 8
  %5 = call noundef nonnull align 8 dereferenceable(24) ptr @_ZN3tbb6detail2d126enumerable_thread_specificINSt7__cxx114listIN32pxrInternal_v0_24__pxrReserved__7TfErrorESaIS6_EEENS1_23cache_aligned_allocatorIS8_EELNS1_18ets_key_usage_typeE1EE5localERb(ptr noundef nonnull align 8 dereferenceable(104) %4, ptr noundef nonnull align 1 dereferenceable(1) %3)
  ret ptr %5
}

; Function Attrs: mustprogress uwtable
define linkonce_odr noundef nonnull align 8 dereferenceable(49) ptr @_ZN3tbb6detail2d126enumerable_thread_specificIN32pxrInternal_v0_24__pxrReserved__15TfDiagnosticMgr8_LogTextENS1_23cache_aligned_allocatorIS5_EELNS1_18ets_key_usage_typeE1EE5localERb(ptr noundef nonnull align 8 dereferenceable(104) %0, ptr noundef nonnull align 1 dereferenceable(1) %1) #0 comdat align 2 {
  %3 = alloca ptr, align 8
  %4 = alloca ptr, align 8
  %5 = alloca ptr, align 8
  store ptr %0, ptr %3, align 8
  store ptr %1, ptr %4, align 8
  %6 = load ptr, ptr %3, align 8
  %7 = load ptr, ptr %4, align 8
  %8 = call noundef ptr @_ZN3tbb6detail2d18ets_baseILNS1_18ets_key_usage_typeE1EE12table_lookupERb(ptr noundef nonnull align 8 dereferenceable(24) %6, ptr noundef nonnull align 1 dereferenceable(1) %7)
  store ptr %8, ptr %5, align 8
  %9 = load ptr, ptr %5, align 8
  ret ptr %9
}

; Function Attrs: mustprogress uwtable
define void @_ZN32pxrInternal_v0_24__pxrReserved__15TfDiagnosticMgr8_LogText16AppendAndPublishESt14_List_iteratorINS_7TfErrorEES4_(ptr noundef nonnull align 8 dereferenceable(49) %0, ptr %1, ptr %2) #0 align 2 {
  %4 = alloca %"struct.std::_List_iterator", align 8
  %5 = alloca %"struct.std::_List_iterator", align 8
  %6 = alloca ptr, align 8
  %7 = alloca %"struct.std::_List_iterator", align 8
  %8 = alloca %"struct.std::_List_iterator", align 8
  %9 = getelementptr inbounds nuw %"struct.std::_List_iterator", ptr %4, i32 0, i32 0
  store ptr %1, ptr %9, align 8
  %10 = getelementptr inbounds nuw %"struct.std::_List_iterator", ptr %5, i32 0, i32 0
  store ptr %2, ptr %10, align 8
  store ptr %0, ptr %6, align 8
  %11 = load ptr, ptr %6, align 8
  call void @llvm.memcpy.p0.p0.i64(ptr align 8 %7, ptr align 8 %4, i64 8, i1 false)
  call void @llvm.memcpy.p0.p0.i64(ptr align 8 %8, ptr align 8 %5, i64 8, i1 false)
  %12 = getelementptr inbounds nuw %"struct.std::_List_iterator", ptr %7, i32 0, i32 0
  %13 = load ptr, ptr %12, align 8
  %14 = getelementptr inbounds nuw %"struct.std::_List_iterator", ptr %8, i32 0, i32 0
  %15 = load ptr, ptr %14, align 8
  call void @_ZN32pxrInternal_v0_24__pxrReserved__15TfDiagnosticMgr8_LogText21_AppendAndPublishImplEbSt14_List_iteratorINS_7TfErrorEES4_(ptr noundef nonnull align 8 dereferenceable(49) %11, i1 noundef zeroext false, ptr %13, ptr %15)
  ret void
}

; Function Attrs: mustprogress uwtable
define linkonce_odr ptr @_ZN32pxrInternal_v0_24__pxrReserved__15TfDiagnosticMgr11GetErrorEndEv(ptr noundef nonnull align 8 dereferenceable(481) %0) #0 comdat align 2 {
  %2 = alloca %"struct.std::_List_iterator", align 8
  %3 = alloca ptr, align 8
  store ptr %0, ptr %3, align 8
  %4 = load ptr, ptr %3, align 8
  %5 = getelementptr inbounds nuw %"class.pxrInternal_v0_24__pxrReserved__::TfDiagnosticMgr", ptr %4, i32 0, i32 6
  %6 = call noundef nonnull align 8 dereferenceable(24) ptr @_ZN3tbb6detail2d126enumerable_thread_specificINSt7__cxx114listIN32pxrInternal_v0_24__pxrReserved__7TfErrorESaIS6_EEENS1_23cache_aligned_allocatorIS8_EELNS1_18ets_key_usage_typeE1EE5localEv(ptr noundef nonnull align 8 dereferenceable(104) %5)
  %7 = call ptr @_ZNSt7__cxx114listIN32pxrInternal_v0_24__pxrReserved__7TfErrorESaIS2_EE3endEv(ptr noundef nonnull align 8 dereferenceable(24) %6) #13
  %8 = getelementptr inbounds nuw %"struct.std::_List_iterator", ptr %2, i32 0, i32 0
  store ptr %7, ptr %8, align 8
  %9 = getelementptr inbounds nuw %"struct.std::_List_iterator", ptr %2, i32 0, i32 0
  %10 = load ptr, ptr %9, align 8
  ret ptr %10
}

; Function Attrs: mustprogress uwtable
define linkonce_odr noundef nonnull align 8 dereferenceable(49) ptr @_ZN3tbb6detail2d126enumerable_thread_specificIN32pxrInternal_v0_24__pxrReserved__15TfDiagnosticMgr8_LogTextENS1_23cache_aligned_allocatorIS5_EELNS1_18ets_key_usage_typeE1EE5localEv(ptr noundef nonnull align 8 dereferenceable(104) %0) #0 comdat align 2 {
  %2 = alloca ptr, align 8
  %3 = alloca i8, align 1
  store ptr %0, ptr %2, align 8
  %4 = load ptr, ptr %2, align 8
  %5 = call noundef nonnull align 8 dereferenceable(49) ptr @_ZN3tbb6detail2d126enumerable_thread_specificIN32pxrInternal_v0_24__pxrReserved__15TfDiagnosticMgr8_LogTextENS1_23cache_aligned_allocatorIS5_EELNS1_18ets_key_usage_typeE1EE5localERb(ptr noundef nonnull align 8 dereferenceable(104) %4, ptr noundef nonnull align 1 dereferenceable(1) %3)
  ret ptr %5
}

; Function Attrs: mustprogress uwtable
define void @_ZN32pxrInternal_v0_24__pxrReserved__15TfDiagnosticMgr22_AppendErrorsToLogTextESt14_List_iteratorINS_7TfErrorEE(ptr noundef nonnull align 8 dereferenceable(481) %0, ptr %1) #0 align 2 {
  %3 = alloca %"struct.std::_List_iterator", align 8
  %4 = alloca ptr, align 8
  %5 = alloca %"struct.std::_List_iterator", align 8
  %6 = alloca %"struct.std::_List_iterator", align 8
  %7 = getelementptr inbounds nuw %"struct.std::_List_iterator", ptr %3, i32 0, i32 0
  store ptr %1, ptr %7, align 8
  store ptr %0, ptr %4, align 8
  %8 = load ptr, ptr %4, align 8
  %9 = getelementptr inbounds nuw %"class.pxrInternal_v0_24__pxrReserved__::TfDiagnosticMgr", ptr %8, i32 0, i32 7
  %10 = call noundef nonnull align 8 dereferenceable(49) ptr @_ZN3tbb6detail2d126enumerable_thread_specificIN32pxrInternal_v0_24__pxrReserved__15TfDiagnosticMgr8_LogTextENS1_23cache_aligned_allocatorIS5_EELNS1_18ets_key_usage_typeE1EE5localEv(ptr noundef nonnull align 8 dereferenceable(104) %9)
  call void @llvm.memcpy.p0.p0.i64(ptr align 8 %5, ptr align 8 %3, i64 8, i1 false)
  %11 = call ptr @_ZN32pxrInternal_v0_24__pxrReserved__15TfDiagnosticMgr11GetErrorEndEv(ptr noundef nonnull align 8 dereferenceable(481) %8)
  %12 = getelementptr inbounds nuw %"struct.std::_List_iterator", ptr %6, i32 0, i32 0
  store ptr %11, ptr %12, align 8
  %13 = getelementptr inbounds nuw %"struct.std::_List_iterator", ptr %5, i32 0, i32 0
  %14 = load ptr, ptr %13, align 8
  %15 = getelementptr inbounds nuw %"struct.std::_List_iterator", ptr %6, i32 0, i32 0
  %16 = load ptr, ptr %15, align 8
  call void @_ZN32pxrInternal_v0_24__pxrReserved__15TfDiagnosticMgr8_LogText16AppendAndPublishESt14_List_iteratorINS_7TfErrorEES4_(ptr noundef nonnull align 8 dereferenceable(49) %10, ptr %14, ptr %16)
  ret void
}