; Function Attrs: mustprogress uwtable
define void @_ZN32pxrInternal_v0_24__pxrReserved__15TfDiagnosticMgr22_AppendErrorsToLogTextESt14_List_iteratorINS_7TfErrorEE(ptr noundef nonnull align 8 dereferenceable(481) %0, ptr %1) local_unnamed_addr #0 align 2 {
  %3 = alloca i8, align 1
  %4 = alloca i8, align 1
  %5 = getelementptr inbounds nuw i8, ptr %0, i64 264
  call void @llvm.lifetime.start.p0(i64 1, ptr nonnull %4)
  %6 = call noundef nonnull align 8 dereferenceable(49) ptr @_ZN3tbb6detail2d18ets_baseILNS1_18ets_key_usage_typeE1EE12table_lookupERb(ptr noundef nonnull align 8 dereferenceable(104) %5, ptr noundef nonnull align 1 dereferenceable(1) %4)
  call void @llvm.lifetime.end.p0(i64 1, ptr nonnull %4)
  %7 = getelementptr inbounds nuw i8, ptr %0, i64 160
  call void @llvm.lifetime.start.p0(i64 1, ptr nonnull %3)
  %8 = call noundef nonnull align 8 dereferenceable(24) ptr @_ZN3tbb6detail2d18ets_baseILNS1_18ets_key_usage_typeE1EE12table_lookupERb(ptr noundef nonnull align 8 dereferenceable(104) %7, ptr noundef nonnull align 1 dereferenceable(1) %3)
  call void @llvm.lifetime.end.p0(i64 1, ptr nonnull %3)
  call void @_ZN32pxrInternal_v0_24__pxrReserved__15TfDiagnosticMgr8_LogText21_AppendAndPublishImplEbSt14_List_iteratorINS_7TfErrorEES4_(ptr noundef nonnull align 8 dereferenceable(49) %6, i1 noundef zeroext false, ptr %1, ptr nonnull %8)
  ret void
}